; Function Attrs: mustprogress nofree norecurse nosync nounwind willreturn memory(argmem: read) uwtable
define internal range(i32 0, 2) i32 @compactlongs_guard(ptr noundef readonly captures(none) %0, ptr noundef readonly captures(none) %1) #8 {
  %3 = getelementptr i8, ptr %0, i64 8
  %.val.i = load ptr, ptr %3, align 8, !tbaa !9
  %.not.i = icmp eq ptr %.val.i, @PyLong_Type
  br i1 %.not.i, label %is_compactlong.exit, label %is_compactlong.exit5

is_compactlong.exit:                              ; preds = %2
  %4 = getelementptr i8, ptr %0, i64 16
  %.val2.i = load i64, ptr %4, align 8, !tbaa !153
  %5 = icmp ugt i64 %.val2.i, 15
  br i1 %5, label %is_compactlong.exit5, label %6

6:                                                ; preds = %is_compactlong.exit
  %7 = getelementptr i8, ptr %1, i64 8
  %.val.i2 = load ptr, ptr %7, align 8, !tbaa !9
  %.not.i3 = icmp eq ptr %.val.i2, @PyLong_Type
  br i1 %.not.i3, label %8, label %is_compactlong.exit5

8:                                                ; preds = %6
  %9 = getelementptr i8, ptr %1, i64 16
  %.val2.i4 = load i64, ptr %9, align 8, !tbaa !153
  %10 = icmp ult i64 %.val2.i4, 16
  %11 = zext i1 %10 to i32
  br label %is_compactlong.exit5

is_compactlong.exit5:                             ; preds = %2, %8, %6, %is_compactlong.exit
  %12 = phi i32 [ 0, %is_compactlong.exit ], [ 0, %6 ], [ %11, %8 ], [ 0, %2 ]
  ret i32 %12
}